target datalayout = "e-m:e-p270:32:32-p271:32:32-p272:64:64-i64:64-i128:128-f80:128-n8:16:32:64-S128"
target triple = "x86_64-unknown-linux-gnu"

%"class.grpc_core::Duration" = type { i64 }
%"struct.std::atomic.15" = type { %"struct.std::__atomic_base.16" }
%"struct.std::__atomic_base.16" = type { i8 }
%"class.grpc_event_engine::experimental::WorkStealingThreadPool::WorkStealingThreadPoolImpl" = type { %"class.std::enable_shared_from_this", i64, %"class.grpc_event_engine::experimental::BusyThreadCount", %"class.grpc_event_engine::experimental::LivingThreadCount", %"class.grpc_event_engine::experimental::WorkStealingThreadPool::TheftRegistry", %"class.grpc_event_engine::experimental::BasicWorkQueue", %"struct.std::atomic.15", %"struct.std::atomic.15", %"struct.std::atomic.15", %"struct.std::atomic", %"struct.std::atomic.15", %"class.grpc_event_engine::experimental::WorkStealingThreadPool::WorkSignal", %"class.grpc_event_engine::experimental::WorkStealingThreadPool::WorkStealingThreadPoolImpl::Lifeguard" }
%"class.std::enable_shared_from_this" = type { %"class.std::weak_ptr" }
%"class.std::weak_ptr" = type { %"class.std::__weak_ptr" }
%"class.std::__weak_ptr" = type { ptr, %"class.std::__weak_count" }
%"class.std::__weak_count" = type { ptr }
%"class.grpc_event_engine::experimental::BusyThreadCount" = type { %"class.std::vector", %"struct.std::atomic" }
%"class.std::vector" = type { %"struct.std::_Vector_base" }
%"struct.std::_Vector_base" = type { %"struct.std::_Vector_base<grpc_event_engine::experimental::BusyThreadCount::ShardedData, std::allocator<grpc_event_engine::experimental::BusyThreadCount::ShardedData>>::_Vector_impl" }
%"struct.std::_Vector_base<grpc_event_engine::experimental::BusyThreadCount::ShardedData, std::allocator<grpc_event_engine::experimental::BusyThreadCount::ShardedData>>::_Vector_impl" = type { %"struct.std::_Vector_base<grpc_event_engine::experimental::BusyThreadCount::ShardedData, std::allocator<grpc_event_engine::experimental::BusyThreadCount::ShardedData>>::_Vector_impl_data" }
%"struct.std::_Vector_base<grpc_event_engine::experimental::BusyThreadCount::ShardedData, std::allocator<grpc_event_engine::experimental::BusyThreadCount::ShardedData>>::_Vector_impl_data" = type { ptr, ptr, ptr }
%"class.grpc_event_engine::experimental::LivingThreadCount" = type { %"class.absl::lts_20230802::Mutex", %"class.absl::lts_20230802::CondVar", i64 }
%"class.absl::lts_20230802::Mutex" = type { %"struct.std::atomic.0" }
%"struct.std::atomic.0" = type { %"struct.std::__atomic_base.1" }
%"struct.std::__atomic_base.1" = type { i64 }
%"class.absl::lts_20230802::CondVar" = type { %"struct.std::atomic.0" }
%"class.grpc_event_engine::experimental::WorkStealingThreadPool::TheftRegistry" = type { %"class.absl::lts_20230802::Mutex", %"class.absl::lts_20230802::flat_hash_set" }
%"class.absl::lts_20230802::flat_hash_set" = type { %"class.absl::lts_20230802::container_internal::raw_hash_set" }
%"class.absl::lts_20230802::container_internal::raw_hash_set" = type { %"class.absl::lts_20230802::container_internal::CompressedTuple" }
%"class.absl::lts_20230802::container_internal::CompressedTuple" = type { %"struct.absl::lts_20230802::container_internal::internal_compressed_tuple::CompressedTupleImpl" }
%"struct.absl::lts_20230802::container_internal::internal_compressed_tuple::CompressedTupleImpl" = type { %"struct.absl::lts_20230802::container_internal::internal_compressed_tuple::Storage" }
%"struct.absl::lts_20230802::container_internal::internal_compressed_tuple::Storage" = type { %"class.absl::lts_20230802::container_internal::CommonFields" }
%"class.absl::lts_20230802::container_internal::CommonFields" = type { ptr, ptr, i64, %"class.absl::lts_20230802::container_internal::CompressedTuple.2" }
%"class.absl::lts_20230802::container_internal::CompressedTuple.2" = type { %"struct.absl::lts_20230802::container_internal::internal_compressed_tuple::CompressedTupleImpl.3" }
%"struct.absl::lts_20230802::container_internal::internal_compressed_tuple::CompressedTupleImpl.3" = type { %"struct.absl::lts_20230802::container_internal::internal_compressed_tuple::Storage.4" }
%"struct.absl::lts_20230802::container_internal::internal_compressed_tuple::Storage.4" = type { i64 }
%"class.grpc_event_engine::experimental::BasicWorkQueue" = type { %"class.grpc_event_engine::experimental::WorkQueue", %"class.absl::lts_20230802::Mutex", %"class.std::deque", ptr }
%"class.grpc_event_engine::experimental::WorkQueue" = type { ptr }
%"class.std::deque" = type { %"class.std::_Deque_base" }
%"class.std::_Deque_base" = type { %"struct.std::_Deque_base<grpc_event_engine::experimental::EventEngine::Closure *, std::allocator<grpc_event_engine::experimental::EventEngine::Closure *>>::_Deque_impl" }
%"struct.std::_Deque_base<grpc_event_engine::experimental::EventEngine::Closure *, std::allocator<grpc_event_engine::experimental::EventEngine::Closure *>>::_Deque_impl" = type { %"struct.std::_Deque_base<grpc_event_engine::experimental::EventEngine::Closure *, std::allocator<grpc_event_engine::experimental::EventEngine::Closure *>>::_Deque_impl_data" }
%"struct.std::_Deque_base<grpc_event_engine::experimental::EventEngine::Closure *, std::allocator<grpc_event_engine::experimental::EventEngine::Closure *>>::_Deque_impl_data" = type { ptr, i64, %"struct.std::_Deque_iterator", %"struct.std::_Deque_iterator" }
%"struct.std::_Deque_iterator" = type { ptr, ptr, ptr, ptr }
%"struct.std::atomic" = type { %"struct.std::__atomic_base" }
%"struct.std::__atomic_base" = type { i64 }
%"class.grpc_event_engine::experimental::WorkStealingThreadPool::WorkSignal" = type { %"class.absl::lts_20230802::Mutex", %"class.absl::lts_20230802::CondVar" }
%"class.grpc_event_engine::experimental::WorkStealingThreadPool::WorkStealingThreadPoolImpl::Lifeguard" = type <{ ptr, %"class.grpc_core::BackOff", %"class.std::unique_ptr", %"class.std::unique_ptr", %"struct.std::atomic.15", [7 x i8] }>
%"class.grpc_core::BackOff" = type { %"class.grpc_core::BackOff::Options", %"class.absl::lts_20230802::random_internal::NonsecureURBGBase", i8, %"class.grpc_core::Duration" }
%"class.grpc_core::BackOff::Options" = type { %"class.grpc_core::Duration", double, double, %"class.grpc_core::Duration" }
%"class.absl::lts_20230802::random_internal::NonsecureURBGBase" = type { %"class.absl::lts_20230802::random_internal::randen_engine" }
%"class.absl::lts_20230802::random_internal::randen_engine" = type { [264 x i8], i64, %"class.absl::lts_20230802::random_internal::Randen" }
%"class.absl::lts_20230802::random_internal::Randen" = type <{ ptr, i8, [7 x i8] }>
%"class.std::unique_ptr" = type { %"struct.std::__uniq_ptr_data" }
%"struct.std::__uniq_ptr_data" = type { %"class.std::__uniq_ptr_impl" }
%"class.std::__uniq_ptr_impl" = type { %"class.std::tuple" }
%"class.std::tuple" = type { %"struct.std::_Tuple_impl" }
%"struct.std::_Tuple_impl" = type { %"struct.std::_Head_base.18" }
%"struct.std::_Head_base.18" = type { ptr }

; Function Attrs: mustprogress uwtable
define void @_ZN17grpc_event_engine12experimental22WorkStealingThreadPool26WorkStealingThreadPoolImpl5StartEv(ptr noundef nonnull align 8 dereferenceable(632) %this) #4 align 2 {
entry:
  %this.addr = alloca ptr, align 8
  %i = alloca i64, align 8
  store ptr %this, ptr %this.addr, align 8
  %this1 = load ptr, ptr %this.addr, align 8
  store i64 0, ptr %i, align 8
  br label %for.cond

for.cond:                                         ; preds = %for.inc, %entry
  %0 = load i64, ptr %i, align 8
  %reserve_threads_ = getelementptr inbounds %"class.grpc_event_engine::experimental::WorkStealingThreadPool::WorkStealingThreadPoolImpl", ptr %this1, i32 0, i32 1
  %1 = load i64, ptr %reserve_threads_, align 8
  %cmp = icmp ult i64 %0, %1
  br i1 %cmp, label %for.body, label %for.end

for.body:                                         ; preds = %for.cond
  call void @_ZN17grpc_event_engine12experimental22WorkStealingThreadPool26WorkStealingThreadPoolImpl11StartThreadEv(ptr noundef nonnull align 8 dereferenceable(632) %this1)
  br label %for.inc

for.inc:                                          ; preds = %for.body
  %2 = load i64, ptr %i, align 8
  %inc = add i64 %2, 1
  store i64 %inc, ptr %i, align 8
  br label %for.cond, !llvm.loop !4

for.end:                                          ; preds = %for.cond
  %lifeguard_ = getelementptr inbounds %"class.grpc_event_engine::experimental::WorkStealingThreadPool::WorkStealingThreadPoolImpl", ptr %this1, i32 0, i32 12
  call void @_ZN17grpc_event_engine12experimental22WorkStealingThreadPool26WorkStealingThreadPoolImpl9Lifeguard5StartEv(ptr noundef nonnull align 8 dereferenceable(361) %lifeguard_)
  ret void
}