; Function Attrs: mustprogress uwtable
define void @_ZN17grpc_event_engine12experimental22WorkStealingThreadPool26WorkStealingThreadPoolImpl5StartEv(ptr noundef nonnull align 8 dereferenceable(632) %this) local_unnamed_addr #3 align 2 {
entry:
  %reserve_threads_ = getelementptr inbounds i8, ptr %this, i64 16
  %0 = load i64, ptr %reserve_threads_, align 8
  %cmp2.not = icmp eq i64 %0, 0
  br i1 %cmp2.not, label %for.end, label %for.body

for.body:                                         ; preds = %entry, %for.body
  %i.03 = phi i64 [ %inc, %for.body ], [ 0, %entry ]
  tail call void @_ZN17grpc_event_engine12experimental22WorkStealingThreadPool26WorkStealingThreadPoolImpl11StartThreadEv(ptr noundef nonnull align 8 dereferenceable(632) %this)
  %inc = add nuw i64 %i.03, 1
  %1 = load i64, ptr %reserve_threads_, align 8
  %cmp = icmp ult i64 %inc, %1
  br i1 %cmp, label %for.body, label %for.end, !llvm.loop !7

for.end:                                          ; preds = %for.body, %entry
  %lifeguard_ = getelementptr inbounds i8, ptr %this, i64 264
  tail call void @_ZN17grpc_event_engine12experimental22WorkStealingThreadPool26WorkStealingThreadPoolImpl9Lifeguard5StartEv(ptr noundef nonnull align 8 dereferenceable(361) %lifeguard_)
  ret void
}